; ModuleID = '54/242.c'
source_filename = "54/242.c"
target datalayout = "e-m:e-p270:32:32-p271:32:32-p272:64:64-i64:64-f80:128-n8:16:32:64-S128"
target triple = "x86_64-pc-linux-gnu"

@.str = private unnamed_addr constant [5 x i8] c"%d%d\00", align 1
@.str.1 = private unnamed_addr constant [3 x i8] c"%d\00", align 1

; Function Attrs: noinline nounwind uwtable
define dso_local i32 @whether(i32 %0, i32 %1, i32* %2, i32 %3) #0 {
  %5 = alloca i32, align 4
  %6 = alloca i32, align 4
  %7 = alloca i32, align 4
  %8 = alloca i32*, align 8
  %9 = alloca i32, align 4
  %10 = alloca i32, align 4
  store i32 %0, i32* %6, align 4
  store i32 %1, i32* %7, align 4
  store i32* %2, i32** %8, align 8
  store i32 %3, i32* %9, align 4
  store i32 1, i32* %10, align 4
  %11 = load i32, i32* %9, align 4
  %12 = load i32, i32* %6, align 4
  %13 = mul nsw i32 %11, %12
  %14 = load i32, i32* %7, align 4
  %15 = add nsw i32 %13, %14
  %16 = load i32*, i32** %8, align 8
  %17 = getelementptr inbounds i32, i32* %16, i64 0
  store i32 %15, i32* %17, align 4
  store i32 1, i32* %10, align 4
  br label %18

18:                                               ; preds = %53, %4
  %19 = load i32, i32* %10, align 4
  %20 = load i32, i32* %6, align 4
  %21 = icmp slt i32 %19, %20
  br i1 %21, label %22, label %56

22:                                               ; preds = %18
  %23 = load i32*, i32** %8, align 8
  %24 = load i32, i32* %10, align 4
  %25 = sub nsw i32 %24, 1
  %26 = sext i32 %25 to i64
  %27 = getelementptr inbounds i32, i32* %23, i64 %26
  %28 = load i32, i32* %27, align 4
  %29 = load i32, i32* %6, align 4
  %30 = sub nsw i32 %29, 1
  %31 = srem i32 %28, %30
  %32 = icmp eq i32 %31, 0
  br i1 %32, label %33, label %51

33:                                               ; preds = %22
  %34 = load i32*, i32** %8, align 8
  %35 = load i32, i32* %10, align 4
  %36 = sub nsw i32 %35, 1
  %37 = sext i32 %36 to i64
  %38 = getelementptr inbounds i32, i32* %34, i64 %37
  %39 = load i32, i32* %38, align 4
  %40 = load i32, i32* %6, align 4
  %41 = mul nsw i32 %39, %40
  %42 = load i32, i32* %6, align 4
  %43 = sub nsw i32 %42, 1
  %44 = sdiv i32 %41, %43
  %45 = load i32, i32* %7, align 4
  %46 = add nsw i32 %44, %45
  %47 = load i32*, i32** %8, align 8
  %48 = load i32, i32* %10, align 4
  %49 = sext i32 %48 to i64
  %50 = getelementptr inbounds i32, i32* %47, i64 %49
  store i32 %46, i32* %50, align 4
  br label %52

51:                                               ; preds = %22
  store i32 0, i32* %5, align 4
  br label %61

52:                                               ; preds = %33
  br label %53

53:                                               ; preds = %52
  %54 = load i32, i32* %10, align 4
  %55 = add nsw i32 %54, 1
  store i32 %55, i32* %10, align 4
  br label %18

56:                                               ; preds = %18
  %57 = load i32, i32* %10, align 4
  %58 = load i32, i32* %6, align 4
  %59 = icmp eq i32 %57, %58
  br i1 %59, label %60, label %61

60:                                               ; preds = %56
  store i32 1, i32* %5, align 4
  br label %61

61:                                               ; preds = %51, %60, %56
  %62 = load i32, i32* %5, align 4
  ret i32 %62
}

; Function Attrs: noinline nounwind uwtable
define dso_local void @main() #0 {
  %1 = alloca i32, align 4
  %2 = alloca [300 x i32], align 16
  %3 = alloca i32, align 4
  %4 = alloca i32, align 4
  store i32 0, i32* %1, align 4
  %5 = bitcast [300 x i32]* %2 to i8*
  call void @llvm.memset.p0i8.i64(i8* align 16 %5, i8 0, i64 1200, i1 false)
  store i32 0, i32* %3, align 4
  store i32 0, i32* %4, align 4
  %6 = call i32 (i8*, ...) @__isoc99_scanf(i8* getelementptr inbounds ([5 x i8], [5 x i8]* @.str, i64 0, i64 0), i32* %4, i32* %3)
  store i32 1, i32* %1, align 4
  br label %7

7:                                                ; preds = %16, %0
  %8 = load i32, i32* %4, align 4
  %9 = load i32, i32* %3, align 4
  %10 = getelementptr inbounds [300 x i32], [300 x i32]* %2, i64 0, i64 0
  %11 = load i32, i32* %1, align 4
  %12 = call i32 @whether(i32 %8, i32 %9, i32* %10, i32 %11)
  %13 = icmp eq i32 %12, 1
  br i1 %13, label %14, label %15

14:                                               ; preds = %7
  br label %19

15:                                               ; preds = %7
  br label %16

16:                                               ; preds = %15
  %17 = load i32, i32* %1, align 4
  %18 = add nsw i32 %17, 1
  store i32 %18, i32* %1, align 4
  br label %7

19:                                               ; preds = %14
  %20 = load i32, i32* %4, align 4
  %21 = sub nsw i32 %20, 1
  %22 = sext i32 %21 to i64
  %23 = getelementptr inbounds [300 x i32], [300 x i32]* %2, i64 0, i64 %22
  %24 = load i32, i32* %23, align 4
  %25 = call i32 (i8*, ...) @printf(i8* getelementptr inbounds ([3 x i8], [3 x i8]* @.str.1, i64 0, i64 0), i32 %24)
  ret void
}

; Function Attrs: argmemonly nounwind willreturn
declare void @llvm.memset.p0i8.i64(i8* nocapture writeonly, i8, i64, i1 immarg) #1

declare dso_local i32 @__isoc99_scanf(i8*, ...) #2

declare dso_local i32 @printf(i8*, ...) #2


!llvm.module.flags = !{!0}
!llvm.ident = !{!1}

!0 = !{i32 1, !"wchar_size", i32 4}
!1 = !{!"clang version 10.0.0-4ubuntu1 "}
